; Function Attrs: nounwind uwtable
define internal range(i32 -30, 1) i32 @header_bin_le(ptr noundef initializes((16, 20), (24, 32)) %0, ptr noundef captures(none) %1, ptr noundef %2, ptr noundef writeonly captures(none) %3, ptr noundef writeonly captures(none) %4) #0 {
  %6 = getelementptr inbounds nuw i8, ptr %0, i64 16
  store i32 65538, ptr %6, align 8, !tbaa !55
  %7 = getelementptr inbounds nuw i8, ptr %0, i64 24
  store ptr @.str.18, ptr %7, align 8, !tbaa !56
  %8 = tail call ptr @__archive_read_ahead(ptr noundef %0, i64 noundef 26, ptr noundef null) #12
  %9 = icmp eq ptr %8, null
  br i1 %9, label %10, label %11

10:                                               ; preds = %5
  tail call void (ptr, i32, ptr, ...) @archive_set_error(ptr noundef nonnull %0, i32 noundef 0, ptr noundef nonnull @.str.17) #12
  br label %85

11:                                               ; preds = %5
  %12 = getelementptr inbounds nuw i8, ptr %8, i64 2
  %13 = load i16, ptr %12, align 1
  %14 = zext i16 %13 to i64
  tail call void @archive_entry_set_dev(ptr noundef %2, i64 noundef %14) #12
  %15 = getelementptr inbounds nuw i8, ptr %8, i64 4
  %16 = load i16, ptr %15, align 1
  %17 = zext i16 %16 to i64
  tail call void @archive_entry_set_ino(ptr noundef %2, i64 noundef %17) #12
  %18 = getelementptr inbounds nuw i8, ptr %8, i64 6
  %19 = load i16, ptr %18, align 1
  %20 = zext i16 %19 to i32
  tail call void @archive_entry_set_mode(ptr noundef %2, i32 noundef %20) #12
  %21 = getelementptr inbounds nuw i8, ptr %1, i64 76
  %22 = load i32, ptr %21, align 4, !tbaa !34
  %.not = icmp eq i32 %22, 0
  br i1 %.not, label %32, label %23

23:                                               ; preds = %11
  %24 = tail call i32 @archive_entry_mode(ptr noundef %2) #12
  %25 = and i32 %24, 28671
  tail call void @archive_entry_set_mode(ptr noundef %2, i32 noundef %25) #12
  %26 = tail call i32 @archive_entry_mode(ptr noundef %2) #12
  %27 = and i32 %26, 61440
  %28 = icmp eq i32 %27, 0
  br i1 %28, label %29, label %32

29:                                               ; preds = %23
  %30 = tail call i32 @archive_entry_mode(ptr noundef %2) #12
  %31 = or i32 %30, 32768
  tail call void @archive_entry_set_mode(ptr noundef %2, i32 noundef %31) #12
  br label %32

32:                                               ; preds = %23, %29, %11
  %33 = getelementptr inbounds nuw i8, ptr %8, i64 8
  %34 = load i16, ptr %33, align 1
  %35 = zext i16 %34 to i64
  tail call void @archive_entry_set_uid(ptr noundef %2, i64 noundef %35) #12
  %36 = getelementptr inbounds nuw i8, ptr %8, i64 10
  %37 = load i16, ptr %36, align 1
  %38 = zext i16 %37 to i64
  tail call void @archive_entry_set_gid(ptr noundef %2, i64 noundef %38) #12
  %39 = getelementptr inbounds nuw i8, ptr %8, i64 12
  %40 = load i16, ptr %39, align 1
  %41 = zext i16 %40 to i32
  tail call void @archive_entry_set_nlink(ptr noundef %2, i32 noundef %41) #12
  %42 = getelementptr inbounds nuw i8, ptr %8, i64 14
  %43 = load i16, ptr %42, align 1
  %44 = zext i16 %43 to i64
  tail call void @archive_entry_set_rdev(ptr noundef %2, i64 noundef %44) #12
  %45 = getelementptr inbounds nuw i8, ptr %8, i64 16
  %46 = load i16, ptr %45, align 1
  %47 = zext i16 %46 to i64
  %48 = shl nuw nsw i64 %47, 16
  %49 = getelementptr inbounds nuw i8, ptr %8, i64 18
  %50 = load i8, ptr %49, align 1, !tbaa !30
  %51 = zext i8 %50 to i64
  %52 = or disjoint i64 %48, %51
  %53 = getelementptr inbounds nuw i8, ptr %8, i64 19
  %54 = load i8, ptr %53, align 1, !tbaa !30
  %55 = zext i8 %54 to i64
  %56 = shl nuw nsw i64 %55, 8
  %57 = or disjoint i64 %52, %56
  tail call void @archive_entry_set_mtime(ptr noundef %2, i64 noundef %57, i64 noundef 0) #12
  %58 = getelementptr inbounds nuw i8, ptr %8, i64 20
  %59 = load i8, ptr %58, align 1, !tbaa !30
  %60 = zext i8 %59 to i64
  %61 = getelementptr inbounds nuw i8, ptr %8, i64 21
  %62 = load i8, ptr %61, align 1, !tbaa !30
  %63 = zext i8 %62 to i64
  %64 = shl nuw nsw i64 %63, 8
  %65 = or disjoint i64 %64, %60
  store i64 %65, ptr %3, align 8, !tbaa !36
  %66 = and i64 %60, 1
  store i64 %66, ptr %4, align 8, !tbaa !36
  %67 = getelementptr inbounds nuw i8, ptr %8, i64 22
  %68 = load i16, ptr %67, align 1
  %69 = zext i16 %68 to i64
  %70 = shl nuw nsw i64 %69, 16
  %71 = getelementptr inbounds nuw i8, ptr %8, i64 24
  %72 = load i8, ptr %71, align 1, !tbaa !30
  %73 = zext i8 %72 to i64
  %74 = or disjoint i64 %70, %73
  %75 = getelementptr inbounds nuw i8, ptr %8, i64 25
  %76 = load i8, ptr %75, align 1, !tbaa !30
  %77 = zext i8 %76 to i64
  %78 = shl nuw nsw i64 %77, 8
  %79 = or disjoint i64 %74, %78
  %80 = getelementptr inbounds nuw i8, ptr %1, i64 24
  store i64 %79, ptr %80, align 8, !tbaa !39
  tail call void @archive_entry_set_size(ptr noundef %2, i64 noundef %79) #12
  %81 = load i64, ptr %80, align 8, !tbaa !39
  %82 = and i64 %81, 1
  %83 = getelementptr inbounds nuw i8, ptr %1, i64 48
  store i64 %82, ptr %83, align 8, !tbaa !53
  %84 = tail call i64 @__archive_read_consume(ptr noundef nonnull %0, i64 noundef 26) #12
  br label %85

85:                                               ; preds = %32, %10
  %.0 = phi i32 [ -30, %10 ], [ 0, %32 ]
  ret i32 %.0
}